; Function Attrs: mustprogress uwtable
define hidden void @_ZNK2cv13wechat_qrcode9ImgSource9getMatrixEv(ptr dead_on_unwind noalias writable writeonly sret(%"class.zxing::ArrayRef") align 8 captures(none) initializes((0, 12), (16, 24)) %0, ptr noundef nonnull readonly align 8 captures(none) dereferenceable(80) %1) unnamed_addr #0 align 2 personality ptr @__gxx_personality_v0 {
  %3 = getelementptr inbounds nuw i8, ptr %1, i64 12
  %4 = load i32, ptr %3, align 4
  %5 = getelementptr inbounds nuw i8, ptr %1, i64 16
  %6 = load i32, ptr %5, align 8
  %7 = mul nsw i32 %6, %4
  %8 = getelementptr inbounds nuw i8, ptr %1, i64 64
  %9 = load i32, ptr %8, align 8
  %10 = icmp eq i32 %4, %9
  %11 = getelementptr inbounds nuw i8, ptr %1, i64 68
  %12 = load i32, ptr %11, align 4
  %13 = icmp eq i32 %6, %12
  %or.cond = select i1 %10, i1 %13, i1 false
  %14 = getelementptr inbounds nuw i8, ptr %0, i64 8
  store i32 0, ptr %14, align 8
  store ptr getelementptr inbounds nuw inrange(-16, 16) (i8, ptr @_ZTVN5zxing8ArrayRefIcEE, i64 16), ptr %0, align 8
  %15 = getelementptr inbounds nuw i8, ptr %0, i64 16
  br i1 %or.cond, label %16, label %23

16:                                               ; preds = %2
  %17 = getelementptr inbounds nuw i8, ptr %1, i64 40
  %18 = load ptr, ptr %17, align 8
  %.not.i.i = icmp eq ptr %18, null
  br i1 %.not.i.i, label %_ZN5zxing8ArrayRefIcEC2ERKS1_.exit, label %19

19:                                               ; preds = %16
  %20 = getelementptr inbounds nuw i8, ptr %18, i64 8
  %21 = load i32, ptr %20, align 8
  %22 = add i32 %21, 1
  store i32 %22, ptr %20, align 8
  br label %_ZN5zxing8ArrayRefIcEC2ERKS1_.exit

_ZN5zxing8ArrayRefIcEC2ERKS1_.exit:               ; preds = %19, %16
  store ptr %18, ptr %15, align 8
  br label %.loopexit

23:                                               ; preds = %2
  store ptr null, ptr %15, align 8
  %24 = tail call noalias noundef nonnull dereferenceable(40) ptr @_Znwm(i64 noundef 40) #14
  invoke void @_ZN5zxing5ArrayIcEC2Ei(ptr noundef nonnull align 8 dereferenceable(40) %24, i32 noundef %7)
          to label %_ZN5zxing8ArrayRefIcEC2Ei.exit unwind label %25

25:                                               ; preds = %23
  %26 = landingpad { ptr, i32 }
          cleanup
  tail call void @_ZdlPv(ptr noundef nonnull %24) #16
  resume { ptr, i32 } %26

_ZN5zxing8ArrayRefIcEC2Ei.exit:                   ; preds = %23
  %27 = getelementptr inbounds nuw i8, ptr %24, i64 8
  %28 = load i32, ptr %27, align 8
  %29 = add i32 %28, 1
  store i32 %29, ptr %27, align 8
  store ptr %24, ptr %15, align 8
  %30 = getelementptr inbounds nuw i8, ptr %1, i64 76
  %31 = load i32, ptr %30, align 4
  %32 = load i32, ptr %8, align 8
  %33 = mul nsw i32 %32, %31
  %34 = getelementptr inbounds nuw i8, ptr %1, i64 72
  %35 = load i32, ptr %34, align 8
  %36 = add nsw i32 %33, %35
  %37 = icmp eq i32 %4, %32
  br i1 %37, label %42, label %.preheader

.preheader:                                       ; preds = %_ZN5zxing8ArrayRefIcEC2Ei.exit
  %38 = icmp sgt i32 %6, 0
  br i1 %38, label %.lr.ph, label %.loopexit

.lr.ph:                                           ; preds = %.preheader
  %39 = getelementptr inbounds nuw i8, ptr %1, i64 56
  %40 = getelementptr inbounds nuw i8, ptr %24, i64 16
  %41 = sext i32 %4 to i64
  %wide.trip.count = zext nneg i32 %6 to i64
  br label %50

42:                                               ; preds = %_ZN5zxing8ArrayRefIcEC2Ei.exit
  %43 = getelementptr inbounds nuw i8, ptr %1, i64 56
  %44 = load ptr, ptr %43, align 8
  %45 = getelementptr inbounds nuw i8, ptr %24, i64 16
  %46 = load ptr, ptr %45, align 8
  %47 = sext i32 %36 to i64
  %48 = getelementptr inbounds i8, ptr %44, i64 %47
  %49 = sext i32 %7 to i64
  tail call void @llvm.memcpy.p0.p0.i64(ptr align 1 %46, ptr readonly align 1 %48, i64 %49, i1 false)
  br label %.loopexit

50:                                               ; preds = %.lr.ph, %50
  %indvars.iv = phi i64 [ 0, %.lr.ph ], [ %indvars.iv.next, %50 ]
  %.02125 = phi i32 [ %36, %.lr.ph ], [ %58, %50 ]
  %51 = load ptr, ptr %39, align 8
  %52 = load ptr, ptr %40, align 8
  %53 = mul nsw i64 %indvars.iv, %41
  %54 = sext i32 %.02125 to i64
  %55 = getelementptr inbounds i8, ptr %51, i64 %54
  %56 = getelementptr inbounds i8, ptr %52, i64 %53
  tail call void @llvm.memcpy.p0.p0.i64(ptr align 1 %56, ptr readonly align 1 %55, i64 %41, i1 false)
  %57 = load i32, ptr %8, align 8
  %58 = add nsw i32 %57, %.02125
  %indvars.iv.next = add nuw nsw i64 %indvars.iv, 1
  %exitcond.not = icmp eq i64 %indvars.iv.next, %wide.trip.count
  br i1 %exitcond.not, label %.loopexit, label %50, !llvm.loop !4

.loopexit:                                        ; preds = %50, %.preheader, %42, %_ZN5zxing8ArrayRefIcEC2ERKS1_.exit
  ret void
}